target datalayout = "e-m:e-p270:32:32-p271:32:32-p272:64:64-i64:64-f80:128-n8:16:32:64-S128"
target triple = "x86_64-pc-linux-gnu"

@.str = private unnamed_addr constant [3 x i8] c"%d\00", align 1
@.str.1 = private unnamed_addr constant [3 x i8] c"%s\00", align 1
@__const.main.num = private unnamed_addr constant [10 x i8] c"0123456789", align 1
@.str.2 = private unnamed_addr constant [2 x i8] c"\0A\00", align 1

; Function Attrs: noinline nounwind uwtable
define dso_local i32 @max(i32 %0, i32 %1) #0 {
  %3 = alloca i32, align 4
  %4 = alloca i32, align 4
  %5 = alloca i32, align 4
  store i32 %0, i32* %4, align 4
  store i32 %1, i32* %5, align 4
  %6 = load i32, i32* %4, align 4
  %7 = load i32, i32* %5, align 4
  %8 = icmp sge i32 %6, %7
  br i1 %8, label %9, label %11

9:                                                ; preds = %2
  %10 = load i32, i32* %4, align 4
  store i32 %10, i32* %3, align 4
  br label %13

11:                                               ; preds = %2
  %12 = load i32, i32* %5, align 4
  store i32 %12, i32* %3, align 4
  br label %13

13:                                               ; preds = %11, %9
  %14 = load i32, i32* %3, align 4
  ret i32 %14
}

; Function Attrs: noinline nounwind uwtable
define dso_local i32 @main() #0 {
  %1 = alloca i32, align 4
  %2 = alloca i32, align 4
  %3 = alloca i32, align 4
  %4 = alloca [260 x i8], align 16
  %5 = alloca [260 x i8], align 16
  %6 = alloca [10 x i8], align 1
  %7 = alloca [260 x i32], align 16
  %8 = alloca [260 x i32], align 16
  %9 = alloca [260 x i32], align 16
  %10 = alloca i32, align 4
  %11 = alloca i32, align 4
  %12 = alloca i32, align 4
  %13 = alloca i32, align 4
  %14 = alloca i32, align 4
  %15 = alloca i32, align 4
  store i32 0, i32* %1, align 4
  %16 = call i32 (i8*, ...) @__isoc99_scanf(i8* getelementptr inbounds ([3 x i8], [3 x i8]* @.str, i64 0, i64 0), i32* %2)
  store i32 0, i32* %3, align 4
  br label %17

17:                                               ; preds = %226, %0
  %18 = load i32, i32* %3, align 4
  %19 = load i32, i32* %2, align 4
  %20 = icmp slt i32 %18, %19
  br i1 %20, label %21, label %229

21:                                               ; preds = %17
  %22 = getelementptr inbounds [260 x i8], [260 x i8]* %4, i64 0, i64 0
  %23 = call i32 (i8*, ...) @__isoc99_scanf(i8* getelementptr inbounds ([3 x i8], [3 x i8]* @.str.1, i64 0, i64 0), i8* %22)
  %24 = getelementptr inbounds [260 x i8], [260 x i8]* %5, i64 0, i64 0
  %25 = call i32 (i8*, ...) @__isoc99_scanf(i8* getelementptr inbounds ([3 x i8], [3 x i8]* @.str.1, i64 0, i64 0), i8* %24)
  %26 = bitcast [10 x i8]* %6 to i8*
  call void @llvm.memcpy.p0i8.p0i8.i64(i8* align 1 %26, i8* align 1 getelementptr inbounds ([10 x i8], [10 x i8]* @__const.main.num, i32 0, i32 0), i64 10, i1 false)
  %27 = bitcast [260 x i32]* %7 to i8*
  call void @llvm.memset.p0i8.i64(i8* align 16 %27, i8 0, i64 1040, i1 false)
  %28 = bitcast [260 x i32]* %8 to i8*
  call void @llvm.memset.p0i8.i64(i8* align 16 %28, i8 0, i64 1040, i1 false)
  %29 = bitcast [260 x i32]* %9 to i8*
  call void @llvm.memset.p0i8.i64(i8* align 16 %29, i8 0, i64 1040, i1 false)
  %30 = getelementptr inbounds [260 x i8], [260 x i8]* %4, i64 0, i64 0
  %31 = call i64 @strlen(i8* %30) #4
  %32 = trunc i64 %31 to i32
  store i32 %32, i32* %12, align 4
  %33 = getelementptr inbounds [260 x i8], [260 x i8]* %5, i64 0, i64 0
  %34 = call i64 @strlen(i8* %33) #4
  %35 = trunc i64 %34 to i32
  store i32 %35, i32* %13, align 4
  store i32 0, i32* %14, align 4
  %36 = load i32, i32* %12, align 4
  %37 = sub nsw i32 %36, 1
  store i32 %37, i32* %10, align 4
  br label %38

38:                                               ; preds = %69, %21
  %39 = load i32, i32* %10, align 4
  %40 = icmp sge i32 %39, 0
  br i1 %40, label %41, label %72

41:                                               ; preds = %38
  store i32 0, i32* %11, align 4
  br label %42

42:                                               ; preds = %63, %41
  %43 = load i32, i32* %11, align 4
  %44 = icmp slt i32 %43, 10
  br i1 %44, label %45, label %66

45:                                               ; preds = %42
  %46 = load i32, i32* %10, align 4
  %47 = sext i32 %46 to i64
  %48 = getelementptr inbounds [260 x i8], [260 x i8]* %4, i64 0, i64 %47
  %49 = load i8, i8* %48, align 1
  %50 = sext i8 %49 to i32
  %51 = load i32, i32* %11, align 4
  %52 = sext i32 %51 to i64
  %53 = getelementptr inbounds [10 x i8], [10 x i8]* %6, i64 0, i64 %52
  %54 = load i8, i8* %53, align 1
  %55 = sext i8 %54 to i32
  %56 = icmp eq i32 %50, %55
  br i1 %56, label %57, label %62

57:                                               ; preds = %45
  %58 = load i32, i32* %11, align 4
  %59 = load i32, i32* %14, align 4
  %60 = sext i32 %59 to i64
  %61 = getelementptr inbounds [260 x i32], [260 x i32]* %7, i64 0, i64 %60
  store i32 %58, i32* %61, align 4
  br label %62

62:                                               ; preds = %57, %45
  br label %63

63:                                               ; preds = %62
  %64 = load i32, i32* %11, align 4
  %65 = add nsw i32 %64, 1
  store i32 %65, i32* %11, align 4
  br label %42

66:                                               ; preds = %42
  %67 = load i32, i32* %14, align 4
  %68 = add nsw i32 %67, 1
  store i32 %68, i32* %14, align 4
  br label %69

69:                                               ; preds = %66
  %70 = load i32, i32* %10, align 4
  %71 = add nsw i32 %70, -1
  store i32 %71, i32* %10, align 4
  br label %38

72:                                               ; preds = %38
  store i32 0, i32* %14, align 4
  %73 = load i32, i32* %13, align 4
  %74 = sub nsw i32 %73, 1
  store i32 %74, i32* %10, align 4
  br label %75

75:                                               ; preds = %106, %72
  %76 = load i32, i32* %10, align 4
  %77 = icmp sge i32 %76, 0
  br i1 %77, label %78, label %109

78:                                               ; preds = %75
  store i32 0, i32* %11, align 4
  br label %79

79:                                               ; preds = %100, %78
  %80 = load i32, i32* %11, align 4
  %81 = icmp slt i32 %80, 10
  br i1 %81, label %82, label %103

82:                                               ; preds = %79
  %83 = load i32, i32* %10, align 4
  %84 = sext i32 %83 to i64
  %85 = getelementptr inbounds [260 x i8], [260 x i8]* %5, i64 0, i64 %84
  %86 = load i8, i8* %85, align 1
  %87 = sext i8 %86 to i32
  %88 = load i32, i32* %11, align 4
  %89 = sext i32 %88 to i64
  %90 = getelementptr inbounds [10 x i8], [10 x i8]* %6, i64 0, i64 %89
  %91 = load i8, i8* %90, align 1
  %92 = sext i8 %91 to i32
  %93 = icmp eq i32 %87, %92
  br i1 %93, label %94, label %99

94:                                               ; preds = %82
  %95 = load i32, i32* %11, align 4
  %96 = load i32, i32* %14, align 4
  %97 = sext i32 %96 to i64
  %98 = getelementptr inbounds [260 x i32], [260 x i32]* %8, i64 0, i64 %97
  store i32 %95, i32* %98, align 4
  br label %99

99:                                               ; preds = %94, %82
  br label %100

100:                                              ; preds = %99
  %101 = load i32, i32* %11, align 4
  %102 = add nsw i32 %101, 1
  store i32 %102, i32* %11, align 4
  br label %79

103:                                              ; preds = %79
  %104 = load i32, i32* %14, align 4
  %105 = add nsw i32 %104, 1
  store i32 %105, i32* %14, align 4
  br label %106

106:                                              ; preds = %103
  %107 = load i32, i32* %10, align 4
  %108 = add nsw i32 %107, -1
  store i32 %108, i32* %10, align 4
  br label %75

109:                                              ; preds = %75
  store i32 0, i32* %10, align 4
  br label %110

110:                                              ; preds = %188, %109
  %111 = load i32, i32* %10, align 4
  %112 = load i32, i32* %12, align 4
  %113 = load i32, i32* %13, align 4
  %114 = call i32 @max(i32 %112, i32 %113)
  %115 = icmp slt i32 %111, %114
  br i1 %115, label %116, label %191

116:                                              ; preds = %110
  %117 = load i32, i32* %10, align 4
  %118 = sext i32 %117 to i64
  %119 = getelementptr inbounds [260 x i32], [260 x i32]* %7, i64 0, i64 %118
  %120 = load i32, i32* %119, align 4
  %121 = load i32, i32* %10, align 4
  %122 = sext i32 %121 to i64
  %123 = getelementptr inbounds [260 x i32], [260 x i32]* %8, i64 0, i64 %122
  %124 = load i32, i32* %123, align 4
  %125 = sub nsw i32 %120, %124
  %126 = icmp sge i32 %125, 0
  br i1 %126, label %127, label %140

127:                                              ; preds = %116
  %128 = load i32, i32* %10, align 4
  %129 = sext i32 %128 to i64
  %130 = getelementptr inbounds [260 x i32], [260 x i32]* %7, i64 0, i64 %129
  %131 = load i32, i32* %130, align 4
  %132 = load i32, i32* %10, align 4
  %133 = sext i32 %132 to i64
  %134 = getelementptr inbounds [260 x i32], [260 x i32]* %8, i64 0, i64 %133
  %135 = load i32, i32* %134, align 4
  %136 = sub nsw i32 %131, %135
  %137 = load i32, i32* %10, align 4
  %138 = sext i32 %137 to i64
  %139 = getelementptr inbounds [260 x i32], [260 x i32]* %9, i64 0, i64 %138
  store i32 %136, i32* %139, align 4
  br label %187

140:                                              ; preds = %116
  %141 = load i32, i32* %10, align 4
  %142 = sext i32 %141 to i64
  %143 = getelementptr inbounds [260 x i32], [260 x i32]* %7, i64 0, i64 %142
  %144 = load i32, i32* %143, align 4
  %145 = load i32, i32* %10, align 4
  %146 = sext i32 %145 to i64
  %147 = getelementptr inbounds [260 x i32], [260 x i32]* %8, i64 0, i64 %146
  %148 = load i32, i32* %147, align 4
  %149 = sub nsw i32 %144, %148
  %150 = add nsw i32 %149, 10
  %151 = load i32, i32* %10, align 4
  %152 = sext i32 %151 to i64
  %153 = getelementptr inbounds [260 x i32], [260 x i32]* %9, i64 0, i64 %152
  store i32 %150, i32* %153, align 4
  %154 = load i32, i32* %10, align 4
  %155 = add nsw i32 %154, 1
  %156 = sext i32 %155 to i64
  %157 = getelementptr inbounds [260 x i32], [260 x i32]* %7, i64 0, i64 %156
  %158 = load i32, i32* %157, align 4
  %159 = icmp sgt i32 %158, 0
  br i1 %159, label %160, label %171

160:                                              ; preds = %140
  %161 = load i32, i32* %10, align 4
  %162 = add nsw i32 %161, 1
  %163 = sext i32 %162 to i64
  %164 = getelementptr inbounds [260 x i32], [260 x i32]* %7, i64 0, i64 %163
  %165 = load i32, i32* %164, align 4
  %166 = sub nsw i32 %165, 1
  %167 = load i32, i32* %10, align 4
  %168 = add nsw i32 %167, 1
  %169 = sext i32 %168 to i64
  %170 = getelementptr inbounds [260 x i32], [260 x i32]* %7, i64 0, i64 %169
  store i32 %166, i32* %170, align 4
  br label %186

171:                                              ; preds = %140
  %172 = load i32, i32* %10, align 4
  %173 = add nsw i32 %172, 1
  %174 = sext i32 %173 to i64
  %175 = getelementptr inbounds [260 x i32], [260 x i32]* %7, i64 0, i64 %174
  store i32 9, i32* %175, align 4
  %176 = load i32, i32* %10, align 4
  %177 = add nsw i32 %176, 2
  %178 = sext i32 %177 to i64
  %179 = getelementptr inbounds [260 x i32], [260 x i32]* %7, i64 0, i64 %178
  %180 = load i32, i32* %179, align 4
  %181 = sub nsw i32 %180, 1
  %182 = load i32, i32* %10, align 4
  %183 = add nsw i32 %182, 2
  %184 = sext i32 %183 to i64
  %185 = getelementptr inbounds [260 x i32], [260 x i32]* %7, i64 0, i64 %184
  store i32 %181, i32* %185, align 4
  br label %186

186:                                              ; preds = %171, %160
  br label %187

187:                                              ; preds = %186, %127
  br label %188

188:                                              ; preds = %187
  %189 = load i32, i32* %10, align 4
  %190 = add nsw i32 %189, 1
  store i32 %190, i32* %10, align 4
  br label %110

191:                                              ; preds = %110
  %192 = load i32, i32* %12, align 4
  %193 = load i32, i32* %13, align 4
  %194 = call i32 @max(i32 %192, i32 %193)
  store i32 %194, i32* %10, align 4
  br label %195

195:                                              ; preds = %207, %191
  %196 = load i32, i32* %10, align 4
  %197 = icmp sge i32 %196, 0
  br i1 %197, label %198, label %210

198:                                              ; preds = %195
  %199 = load i32, i32* %10, align 4
  %200 = sext i32 %199 to i64
  %201 = getelementptr inbounds [260 x i32], [260 x i32]* %9, i64 0, i64 %200
  %202 = load i32, i32* %201, align 4
  %203 = icmp ne i32 %202, 0
  br i1 %203, label %204, label %206

204:                                              ; preds = %198
  %205 = load i32, i32* %10, align 4
  store i32 %205, i32* %15, align 4
  br label %210

206:                                              ; preds = %198
  br label %207

207:                                              ; preds = %206
  %208 = load i32, i32* %10, align 4
  %209 = add nsw i32 %208, -1
  store i32 %209, i32* %10, align 4
  br label %195

210:                                              ; preds = %204, %195
  %211 = load i32, i32* %15, align 4
  store i32 %211, i32* %10, align 4
  br label %212

212:                                              ; preds = %221, %210
  %213 = load i32, i32* %10, align 4
  %214 = icmp sge i32 %213, 0
  br i1 %214, label %215, label %224

215:                                              ; preds = %212
  %216 = load i32, i32* %10, align 4
  %217 = sext i32 %216 to i64
  %218 = getelementptr inbounds [260 x i32], [260 x i32]* %9, i64 0, i64 %217
  %219 = load i32, i32* %218, align 4
  %220 = call i32 (i8*, ...) @printf(i8* getelementptr inbounds ([3 x i8], [3 x i8]* @.str, i64 0, i64 0), i32 %219)
  br label %221

221:                                              ; preds = %215
  %222 = load i32, i32* %10, align 4
  %223 = add nsw i32 %222, -1
  store i32 %223, i32* %10, align 4
  br label %212

224:                                              ; preds = %212
  %225 = call i32 (i8*, ...) @printf(i8* getelementptr inbounds ([2 x i8], [2 x i8]* @.str.2, i64 0, i64 0))
  br label %226

226:                                              ; preds = %224
  %227 = load i32, i32* %3, align 4
  %228 = add nsw i32 %227, 1
  store i32 %228, i32* %3, align 4
  br label %17

229:                                              ; preds = %17
  ret i32 0
}